; Function Attrs: nounwind uwtable
define internal range(i32 -1, 1) i32 @H5O__stab_delete(ptr noundef %0, ptr nocapture readnone %1, ptr noundef %2) #0 {
  %4 = tail call i32 @H5G__stab_delete(ptr noundef %0, ptr noundef %2) #5
  %5 = icmp slt i32 %4, 0
  br i1 %5, label %6, label %10

6:                                                ; preds = %3
  %7 = load i64, ptr @H5E_OHDR_g, align 8
  %8 = load i64, ptr @H5E_CANTFREE_g, align 8
  %9 = tail call i32 (ptr, ptr, i32, i64, i64, ptr, ...) @H5E_printf_stack(ptr noundef nonnull @.str.1, ptr noundef nonnull @__func__.H5O__stab_delete, i32 noundef 251, i64 noundef %7, i64 noundef %8, ptr noundef nonnull @.str.5) #5
  br label %10

10:                                               ; preds = %3, %6
  %.0 = phi i32 [ -1, %6 ], [ 0, %3 ]
  ret i32 %.0
}